; Function Attrs: mustprogress uwtable
define void @_ZN23MLDefaultMeshDecorators13drawDotVectorERKN3vcg8Matrix44IfEERSt6vectorISt4pairINS0_6Point3IfEENS0_6Color4IhEEESaISB_EEf(ptr nocapture noundef nonnull readonly align 4 dereferenceable(64) %0, ptr nocapture noundef nonnull readonly align 8 dereferenceable(24) %1, float noundef %2) local_unnamed_addr #9 align 2 personality ptr @__gxx_personality_v0 {
  %4 = alloca %"class.vcg::Matrix44", align 4
  %5 = alloca %"class.vcg::Color4", align 1
  tail call void @glPushAttrib(i32 noundef 10497)
  tail call void @glDisable(i32 noundef 2896)
  tail call void @glDepthFunc(i32 noundef 515)
  tail call void @glEnable(i32 noundef 2848)
  tail call void @glEnable(i32 noundef 3042)
  tail call void @glBlendFunc(i32 noundef 770, i32 noundef 771)
  tail call void @glLineWidth(float noundef 1.000000e+00)
  tail call void @glDepthRange(double noundef 0.000000e+00, double noundef 0x3FEFF7CED916872B)
  tail call void @glMatrixMode(i32 noundef 5888)
  tail call void @glPushMatrix()
  call void @llvm.lifetime.start.p0(i64 64, ptr nonnull %4)
  call void @llvm.memcpy.p0.p0.i64(ptr noundef nonnull align 4 dereferenceable(64) %4, ptr noundef nonnull align 4 dereferenceable(64) %0, i64 64, i1 false)
  br label %.preheader.i.i.i

.preheader.i.i.i:                                 ; preds = %15, %3
  %indvars.iv15.i.i.i = phi i64 [ 1, %3 ], [ %indvars.iv.next16.i.i.i, %15 ]
  %6 = shl nuw nsw i64 %indvars.iv15.i.i.i, 2
  br label %7

7:                                                ; preds = %7, %.preheader.i.i.i
  %indvars.iv.i.i.i = phi i64 [ 0, %.preheader.i.i.i ], [ %indvars.iv.next.i.i.i, %7 ]
  %8 = add nuw nsw i64 %indvars.iv.i.i.i, %6
  %9 = getelementptr inbounds [16 x float], ptr %4, i64 0, i64 %8
  %10 = shl i64 %indvars.iv.i.i.i, 2
  %11 = add nuw nsw i64 %10, %indvars.iv15.i.i.i
  %12 = getelementptr inbounds [16 x float], ptr %4, i64 0, i64 %11
  %13 = load float, ptr %9, align 4, !alias.scope !122
  %14 = load float, ptr %12, align 4, !alias.scope !122
  store float %14, ptr %9, align 4, !alias.scope !122
  store float %13, ptr %12, align 4, !alias.scope !122
  %indvars.iv.next.i.i.i = add nuw nsw i64 %indvars.iv.i.i.i, 1
  %exitcond.not.i.i.i = icmp eq i64 %indvars.iv.next.i.i.i, %indvars.iv15.i.i.i
  br i1 %exitcond.not.i.i.i, label %15, label %7, !llvm.loop !117

15:                                               ; preds = %7
  %indvars.iv.next16.i.i.i = add nuw nsw i64 %indvars.iv15.i.i.i, 1
  %exitcond18.not.i.i.i = icmp eq i64 %indvars.iv.next16.i.i.i, 4
  br i1 %exitcond18.not.i.i.i, label %_ZN3vcg12glMultMatrixERKNS_8Matrix44IfEE.exit, label %.preheader.i.i.i, !llvm.loop !118

_ZN3vcg12glMultMatrixERKNS_8Matrix44IfEE.exit:    ; preds = %15
  call void @glMultMatrixf(ptr noundef nonnull %4)
  call void @llvm.lifetime.end.p0(i64 64, ptr nonnull %4)
  %16 = getelementptr inbounds i8, ptr %1, i64 8
  %17 = load ptr, ptr %16, align 8
  %18 = load ptr, ptr %1, align 8
  %.not = icmp eq ptr %17, %18
  br i1 %.not, label %39, label %19

19:                                               ; preds = %_ZN3vcg12glMultMatrixERKNS_8Matrix44IfEE.exit
  call void @glEnableClientState(i32 noundef 32884)
  call void @glEnableClientState(i32 noundef 32886)
  %20 = fadd float %2, 5.000000e-01
  call void @glPointSize(float noundef %20)
  %21 = load ptr, ptr %1, align 8
  call void @glVertexPointer(i32 noundef 3, i32 noundef 5126, i32 noundef 16, ptr noundef nonnull %21)
  %22 = load ptr, ptr %1, align 8
  %23 = getelementptr inbounds i8, ptr %22, i64 12
  call void @glColorPointer(i32 noundef 4, i32 noundef 5121, i32 noundef 16, ptr noundef nonnull %23)
  call void @glDisableClientState(i32 noundef 32886)
  store i32 -12566464, ptr %5, align 4
  call void @glColor4ubv(ptr noundef nonnull %5)
  %24 = load ptr, ptr %16, align 8
  %25 = load ptr, ptr %1, align 8
  %26 = ptrtoint ptr %24 to i64
  %27 = ptrtoint ptr %25 to i64
  %28 = sub i64 %26, %27
  %29 = lshr exact i64 %28, 4
  %30 = trunc i64 %29 to i32
  call void @glDrawArrays(i32 noundef 0, i32 noundef 0, i32 noundef %30)
  %31 = fadd float %2, -1.000000e+00
  call void @glPointSize(float noundef %31)
  call void @glEnableClientState(i32 noundef 32886)
  %32 = load ptr, ptr %16, align 8
  %33 = load ptr, ptr %1, align 8
  %34 = ptrtoint ptr %32 to i64
  %35 = ptrtoint ptr %33 to i64
  %36 = sub i64 %34, %35
  %37 = lshr exact i64 %36, 4
  %38 = trunc i64 %37 to i32
  call void @glDrawArrays(i32 noundef 0, i32 noundef 0, i32 noundef %38)
  call void @glDisableClientState(i32 noundef 32884)
  br label %39

39:                                               ; preds = %19, %_ZN3vcg12glMultMatrixERKNS_8Matrix44IfEE.exit
  call void @glPopMatrix()
  call void @glPopAttrib()
  ret void
}